target datalayout = "e-m:e-p270:32:32-p271:32:32-p272:64:64-i64:64-i128:128-f80:128-n8:16:32:64-S128"
target triple = "x86_64-pc-linux-gnu"

%struct._xmlNode = type { ptr, i32, ptr, ptr, ptr, ptr, ptr, ptr, ptr, ptr, ptr, ptr, ptr, ptr, i16, i16 }
%struct._xmlAttr = type { ptr, i32, ptr, ptr, ptr, ptr, ptr, ptr, ptr, ptr, i32, ptr }

@xmlFree = external global ptr, align 8

; Function Attrs: nounwind uwtable
define internal zeroext i1 @is_empty_node(ptr noundef %0) #0 {
  %2 = alloca ptr, align 8
  %3 = alloca ptr, align 8
  %4 = alloca i8, align 1
  store ptr %0, ptr %2, align 8
  %5 = load ptr, ptr %2, align 8
  %6 = call ptr @xmlNodeGetContent(ptr noundef %5)
  store ptr %6, ptr %3, align 8
  %7 = load ptr, ptr %3, align 8
  %8 = icmp eq ptr %7, null
  br i1 %8, label %14, label %9

9:                                                ; preds = %1
  %10 = load ptr, ptr %3, align 8
  %11 = load i8, ptr %10, align 1
  %12 = zext i8 %11 to i32
  %13 = icmp eq i32 %12, 0
  br label %14

14:                                               ; preds = %9, %1
  %15 = phi i1 [ true, %1 ], [ %13, %9 ]
  %16 = zext i1 %15 to i8
  store i8 %16, ptr %4, align 1
  %17 = load ptr, ptr @xmlFree, align 8
  %18 = load ptr, ptr %3, align 8
  call void %17(ptr noundef %18)
  %19 = load i8, ptr %4, align 1
  %20 = trunc i8 %19 to i1
  ret i1 %20
}

; Function Attrs: nounwind uwtable
define hidden void @dom_normalize(ptr noundef %0) #0 {
  %2 = alloca ptr, align 8
  %3 = alloca ptr, align 8
  %4 = alloca ptr, align 8
  %5 = alloca ptr, align 8
  %6 = alloca ptr, align 8
  %7 = alloca ptr, align 8
  store ptr %0, ptr %2, align 8
  %8 = load ptr, ptr %2, align 8
  %9 = getelementptr inbounds %struct._xmlNode, ptr %8, i32 0, i32 3
  %10 = load ptr, ptr %9, align 8
  store ptr %10, ptr %3, align 8
  br label %11

11:                                               ; preds = %73, %48, %1
  %12 = load ptr, ptr %3, align 8
  %13 = icmp ne ptr %12, null
  br i1 %13, label %14, label %77

14:                                               ; preds = %11
  %15 = load ptr, ptr %3, align 8
  %16 = getelementptr inbounds %struct._xmlNode, ptr %15, i32 0, i32 1
  %17 = load i32, ptr %16, align 8
  switch i32 %17, label %72 [
    i32 3, label %18
    i32 1, label %56
    i32 2, label %70
  ]

18:                                               ; preds = %14
  %19 = load ptr, ptr %3, align 8
  %20 = getelementptr inbounds %struct._xmlNode, ptr %19, i32 0, i32 6
  %21 = load ptr, ptr %20, align 8
  store ptr %21, ptr %4, align 8
  br label %22

22:                                               ; preds = %44, %18
  %23 = load ptr, ptr %4, align 8
  %24 = icmp ne ptr %23, null
  br i1 %24, label %25, label %45

25:                                               ; preds = %22
  %26 = load ptr, ptr %4, align 8
  %27 = getelementptr inbounds %struct._xmlNode, ptr %26, i32 0, i32 1
  %28 = load i32, ptr %27, align 8
  %29 = icmp eq i32 %28, 3
  br i1 %29, label %30, label %43

30:                                               ; preds = %25
  %31 = load ptr, ptr %4, align 8
  %32 = getelementptr inbounds %struct._xmlNode, ptr %31, i32 0, i32 6
  %33 = load ptr, ptr %32, align 8
  store ptr %33, ptr %5, align 8
  %34 = load ptr, ptr %4, align 8
  %35 = call ptr @xmlNodeGetContent(ptr noundef %34)
  store ptr %35, ptr %7, align 8
  %36 = load ptr, ptr %3, align 8
  %37 = load ptr, ptr %7, align 8
  call void @xmlNodeAddContent(ptr noundef %36, ptr noundef %37)
  %38 = load ptr, ptr @xmlFree, align 8
  %39 = load ptr, ptr %7, align 8
  call void %38(ptr noundef %39)
  %40 = load ptr, ptr %4, align 8
  call void @xmlUnlinkNode(ptr noundef %40)
  %41 = load ptr, ptr %4, align 8
  call void @php_libxml_node_free_resource(ptr noundef %41)
  %42 = load ptr, ptr %5, align 8
  store ptr %42, ptr %4, align 8
  br label %44

43:                                               ; preds = %25
  br label %45

44:                                               ; preds = %30
  br label %22

45:                                               ; preds = %43, %22
  %46 = load ptr, ptr %3, align 8
  %47 = call zeroext i1 @is_empty_node(ptr noundef %46)
  br i1 %47, label %48, label %55

48:                                               ; preds = %45
  %49 = load ptr, ptr %3, align 8
  %50 = getelementptr inbounds %struct._xmlNode, ptr %49, i32 0, i32 6
  %51 = load ptr, ptr %50, align 8
  store ptr %51, ptr %4, align 8
  %52 = load ptr, ptr %3, align 8
  call void @xmlUnlinkNode(ptr noundef %52)
  %53 = load ptr, ptr %3, align 8
  call void @php_libxml_node_free_resource(ptr noundef %53)
  %54 = load ptr, ptr %4, align 8
  store ptr %54, ptr %3, align 8
  br label %11

55:                                               ; preds = %45
  br label %73

56:                                               ; preds = %14
  %57 = load ptr, ptr %3, align 8
  call void @dom_normalize(ptr noundef %57)
  %58 = load ptr, ptr %3, align 8
  %59 = getelementptr inbounds %struct._xmlNode, ptr %58, i32 0, i32 11
  %60 = load ptr, ptr %59, align 8
  store ptr %60, ptr %6, align 8
  br label %61

61:                                               ; preds = %64, %56
  %62 = load ptr, ptr %6, align 8
  %63 = icmp ne ptr %62, null
  br i1 %63, label %64, label %69

64:                                               ; preds = %61
  %65 = load ptr, ptr %6, align 8
  call void @dom_normalize(ptr noundef %65)
  %66 = load ptr, ptr %6, align 8
  %67 = getelementptr inbounds %struct._xmlAttr, ptr %66, i32 0, i32 6
  %68 = load ptr, ptr %67, align 8
  store ptr %68, ptr %6, align 8
  br label %61

69:                                               ; preds = %61
  br label %73

70:                                               ; preds = %14
  %71 = load ptr, ptr %3, align 8
  call void @dom_normalize(ptr noundef %71)
  br label %73

72:                                               ; preds = %14
  br label %73

73:                                               ; preds = %72, %70, %69, %55
  %74 = load ptr, ptr %3, align 8
  %75 = getelementptr inbounds %struct._xmlNode, ptr %74, i32 0, i32 6
  %76 = load ptr, ptr %75, align 8
  store ptr %76, ptr %3, align 8
  br label %11

77:                                               ; preds = %11
  ret void
}