; Function Attrs: nounwind uwtable
define hidden void @dom_normalize(ptr nocapture noundef readonly %0) local_unnamed_addr #1 {
  %2 = getelementptr inbounds i8, ptr %0, i64 24
  %3 = load ptr, ptr %2, align 8
  %.not37 = icmp eq ptr %3, null
  br i1 %.not37, label %._crit_edge41, label %.lr.ph40

.lr.ph40:                                         ; preds = %1, %.backedge
  %.038 = phi ptr [ %.0.be, %.backedge ], [ %3, %1 ]
  %4 = getelementptr inbounds i8, ptr %.038, i64 8
  %5 = load i32, ptr %4, align 8
  switch i32 %5, label %.loopexit [
    i32 3, label %6
    i32 1, label %25
    i32 2, label %28
  ]

6:                                                ; preds = %.lr.ph40
  %7 = getelementptr inbounds i8, ptr %.038, i64 48
  %8 = load ptr, ptr %7, align 8
  %.not2933 = icmp eq ptr %8, null
  br i1 %.not2933, label %._crit_edge, label %.lr.ph35

.lr.ph35:                                         ; preds = %6, %12
  %.02734 = phi ptr [ %14, %12 ], [ %8, %6 ]
  %9 = getelementptr inbounds i8, ptr %.02734, i64 8
  %10 = load i32, ptr %9, align 8
  %11 = icmp eq i32 %10, 3
  br i1 %11, label %12, label %._crit_edge

12:                                               ; preds = %.lr.ph35
  %13 = getelementptr inbounds i8, ptr %.02734, i64 48
  %14 = load ptr, ptr %13, align 8
  %15 = tail call ptr @xmlNodeGetContent(ptr noundef nonnull %.02734) #16
  tail call void @xmlNodeAddContent(ptr noundef nonnull %.038, ptr noundef %15) #16
  %16 = load ptr, ptr @xmlFree, align 8
  tail call void %16(ptr noundef %15) #16
  tail call void @xmlUnlinkNode(ptr noundef nonnull %.02734) #16
  tail call void @php_libxml_node_free_resource(ptr noundef nonnull %.02734) #16
  %.not29 = icmp eq ptr %14, null
  br i1 %.not29, label %._crit_edge, label %.lr.ph35

._crit_edge:                                      ; preds = %12, %.lr.ph35, %6
  %17 = tail call ptr @xmlNodeGetContent(ptr noundef nonnull %.038) #16
  %18 = icmp eq ptr %17, null
  br i1 %18, label %is_empty_node.exit.thread, label %is_empty_node.exit

is_empty_node.exit.thread:                        ; preds = %._crit_edge
  %19 = load ptr, ptr @xmlFree, align 8
  tail call void %19(ptr noundef null) #16
  br label %23

is_empty_node.exit:                               ; preds = %._crit_edge
  %20 = load i8, ptr %17, align 1
  %21 = icmp eq i8 %20, 0
  %22 = load ptr, ptr @xmlFree, align 8
  tail call void %22(ptr noundef nonnull %17) #16
  br i1 %21, label %23, label %.loopexit

23:                                               ; preds = %is_empty_node.exit.thread, %is_empty_node.exit
  %24 = load ptr, ptr %7, align 8
  tail call void @xmlUnlinkNode(ptr noundef nonnull %.038) #16
  tail call void @php_libxml_node_free_resource(ptr noundef nonnull %.038) #16
  br label %.backedge

.backedge:                                        ; preds = %23, %.loopexit
  %.0.be = phi ptr [ %30, %.loopexit ], [ %24, %23 ]
  %.not = icmp eq ptr %.0.be, null
  br i1 %.not, label %._crit_edge41, label %.lr.ph40

25:                                               ; preds = %.lr.ph40
  tail call void @dom_normalize(ptr noundef nonnull %.038)
  %26 = getelementptr inbounds i8, ptr %.038, i64 88
  %.02630 = load ptr, ptr %26, align 8
  %.not2831 = icmp eq ptr %.02630, null
  br i1 %.not2831, label %.loopexit, label %.lr.ph

.lr.ph:                                           ; preds = %25, %.lr.ph
  %.02632 = phi ptr [ %.026, %.lr.ph ], [ %.02630, %25 ]
  tail call void @dom_normalize(ptr noundef nonnull %.02632)
  %27 = getelementptr inbounds i8, ptr %.02632, i64 48
  %.026 = load ptr, ptr %27, align 8
  %.not28 = icmp eq ptr %.026, null
  br i1 %.not28, label %.loopexit, label %.lr.ph

28:                                               ; preds = %.lr.ph40
  tail call void @dom_normalize(ptr noundef nonnull %.038)
  br label %.loopexit

.loopexit:                                        ; preds = %.lr.ph, %25, %.lr.ph40, %is_empty_node.exit, %28
  %29 = getelementptr inbounds i8, ptr %.038, i64 48
  %30 = load ptr, ptr %29, align 8
  br label %.backedge

._crit_edge41:                                    ; preds = %.backedge, %1
  ret void
}